; Function Attrs: mustprogress nofree norecurse nounwind willreturn uwtable
define hidden noundef zeroext i1 @_ZNK20G1EvacFailureRegions8containsEj(ptr nocapture noundef nonnull readonly align 8 dereferenceable(84) %0, i32 noundef %1) local_unnamed_addr #4 align 2 {
  %3 = zext i32 %1 to i64
  %4 = load ptr, ptr %0, align 8
  %5 = lshr i64 %3, 6
  %6 = getelementptr inbounds i64, ptr %4, i64 %5
  %7 = load volatile i64, ptr %6, align 8
  %8 = and i64 %3, 63
  %9 = shl nuw i64 1, %8
  %10 = and i64 %7, %9
  %11 = icmp ne i64 %10, 0
  ret i1 %11
}